; Function Attrs: mustprogress uwtable
define noundef zeroext i1 @_ZN32pxrInternal_v0_24__pxrReserved__11UsdGeomCube13ComputeExtentEdPNS_7VtArrayINS_7GfVec3fEEE(double noundef %0, ptr noundef nonnull %1) local_unnamed_addr #0 align 2 {
  tail call void @_ZN32pxrInternal_v0_24__pxrReserved__7VtArrayINS_7GfVec3fEE6resizeEm(ptr noundef nonnull align 8 dereferenceable(40) %1, i64 noundef 2)
  %3 = fmul double %0, -5.000000e-01
  %4 = fptrunc double %3 to float
  %5 = tail call noundef nonnull align 4 dereferenceable(12) ptr @_ZN32pxrInternal_v0_24__pxrReserved__7VtArrayINS_7GfVec3fEEixEm(ptr noundef nonnull align 8 dereferenceable(40) %1, i64 noundef 0)
  store float %4, ptr %5, align 4
  %.sroa.26.0..sroa_idx = getelementptr inbounds i8, ptr %5, i64 4
  store float %4, ptr %.sroa.26.0..sroa_idx, align 4
  %.sroa.37.0..sroa_idx = getelementptr inbounds i8, ptr %5, i64 8
  store float %4, ptr %.sroa.37.0..sroa_idx, align 4
  %6 = fmul double %0, 5.000000e-01
  %7 = fptrunc double %6 to float
  %8 = tail call noundef nonnull align 4 dereferenceable(12) ptr @_ZN32pxrInternal_v0_24__pxrReserved__7VtArrayINS_7GfVec3fEEixEm(ptr noundef nonnull align 8 dereferenceable(40) %1, i64 noundef 1)
  store float %7, ptr %8, align 4
  %.sroa.2.0..sroa_idx = getelementptr inbounds i8, ptr %8, i64 4
  store float %7, ptr %.sroa.2.0..sroa_idx, align 4
  %.sroa.3.0..sroa_idx = getelementptr inbounds i8, ptr %8, i64 8
  store float %7, ptr %.sroa.3.0..sroa_idx, align 4
  ret i1 true
}